; ModuleID = '31/1775.c'
source_filename = "31/1775.c"
target datalayout = "e-m:e-p270:32:32-p271:32:32-p272:64:64-i64:64-f80:128-n8:16:32:64-S128"
target triple = "x86_64-pc-linux-gnu"

%struct.Student = type { [100 x i8], %struct.Student*, %struct.Student* }

@.str = private unnamed_addr constant [4 x i8] c"end\00", align 1

; Function Attrs: noinline nounwind uwtable
define dso_local i32 @main() #0 {
  %1 = alloca i32, align 4
  %2 = alloca %struct.Student*, align 8
  %3 = alloca %struct.Student*, align 8
  store i32 0, i32* %1, align 4
  %4 = call noalias i8* @malloc(i64 120) #4
  %5 = bitcast i8* %4 to %struct.Student*
  store %struct.Student* %5, %struct.Student** %2, align 8
  %6 = load %struct.Student*, %struct.Student** %2, align 8
  store %struct.Student* %6, %struct.Student** %3, align 8
  %7 = load %struct.Student*, %struct.Student** %2, align 8
  %8 = getelementptr inbounds %struct.Student, %struct.Student* %7, i32 0, i32 2
  store %struct.Student* null, %struct.Student** %8, align 8
  br label %9

9:                                                ; preds = %33, %0
  %10 = load %struct.Student*, %struct.Student** %3, align 8
  %11 = getelementptr inbounds %struct.Student, %struct.Student* %10, i32 0, i32 0
  %12 = getelementptr inbounds [100 x i8], [100 x i8]* %11, i64 0, i64 0
  %13 = call i32 (i8*, ...) bitcast (i32 (...)* @gets to i32 (i8*, ...)*)(i8* %12)
  %14 = load %struct.Student*, %struct.Student** %3, align 8
  %15 = getelementptr inbounds %struct.Student, %struct.Student* %14, i32 0, i32 0
  %16 = getelementptr inbounds [100 x i8], [100 x i8]* %15, i64 0, i64 0
  %17 = call i32 @strcmp(i8* getelementptr inbounds ([4 x i8], [4 x i8]* @.str, i64 0, i64 0), i8* %16) #5
  %18 = icmp ne i32 %17, 0
  br i1 %18, label %19, label %32

19:                                               ; preds = %9
  %20 = call noalias i8* @malloc(i64 120) #4
  %21 = bitcast i8* %20 to %struct.Student*
  %22 = load %struct.Student*, %struct.Student** %3, align 8
  %23 = getelementptr inbounds %struct.Student, %struct.Student* %22, i32 0, i32 1
  store %struct.Student* %21, %struct.Student** %23, align 8
  %24 = load %struct.Student*, %struct.Student** %3, align 8
  %25 = load %struct.Student*, %struct.Student** %3, align 8
  %26 = getelementptr inbounds %struct.Student, %struct.Student* %25, i32 0, i32 1
  %27 = load %struct.Student*, %struct.Student** %26, align 8
  %28 = getelementptr inbounds %struct.Student, %struct.Student* %27, i32 0, i32 2
  store %struct.Student* %24, %struct.Student** %28, align 8
  %29 = load %struct.Student*, %struct.Student** %3, align 8
  %30 = getelementptr inbounds %struct.Student, %struct.Student* %29, i32 0, i32 1
  %31 = load %struct.Student*, %struct.Student** %30, align 8
  store %struct.Student* %31, %struct.Student** %3, align 8
  br label %33

32:                                               ; preds = %9
  br label %34

33:                                               ; preds = %19
  br label %9

34:                                               ; preds = %32
  %35 = load %struct.Student*, %struct.Student** %3, align 8
  %36 = getelementptr inbounds %struct.Student, %struct.Student* %35, i32 0, i32 2
  %37 = load %struct.Student*, %struct.Student** %36, align 8
  store %struct.Student* %37, %struct.Student** %3, align 8
  br label %38

38:                                               ; preds = %48, %34
  %39 = load %struct.Student*, %struct.Student** %3, align 8
  %40 = getelementptr inbounds %struct.Student, %struct.Student* %39, i32 0, i32 0
  %41 = getelementptr inbounds [100 x i8], [100 x i8]* %40, i64 0, i64 0
  %42 = call i32 @puts(i8* %41)
  %43 = load %struct.Student*, %struct.Student** %3, align 8
  %44 = getelementptr inbounds %struct.Student, %struct.Student* %43, i32 0, i32 2
  %45 = load %struct.Student*, %struct.Student** %44, align 8
  %46 = icmp eq %struct.Student* %45, null
  br i1 %46, label %47, label %48

47:                                               ; preds = %38
  br label %52

48:                                               ; preds = %38
  %49 = load %struct.Student*, %struct.Student** %3, align 8
  %50 = getelementptr inbounds %struct.Student, %struct.Student* %49, i32 0, i32 2
  %51 = load %struct.Student*, %struct.Student** %50, align 8
  store %struct.Student* %51, %struct.Student** %3, align 8
  br label %38

52:                                               ; preds = %47
  ret i32 0
}

; Function Attrs: nounwind
declare dso_local noalias i8* @malloc(i64) #1

declare dso_local i32 @gets(...) #2

; Function Attrs: nounwind readonly
declare dso_local i32 @strcmp(i8*, i8*) #3

declare dso_local i32 @puts(i8*) #2


!llvm.module.flags = !{!0}
!llvm.ident = !{!1}

!0 = !{i32 1, !"wchar_size", i32 4}
!1 = !{!"clang version 10.0.0-4ubuntu1 "}
